target datalayout = "e-m:e-p270:32:32-p271:32:32-p272:64:64-i64:64-i128:128-f80:128-n8:16:32:64-S128"
target triple = "x86_64-pc-linux-gnu"

%struct.Node = type { i32 }
%struct.AlterFdwStmt = type { i32, ptr, ptr, ptr }

@.str.326 = private unnamed_addr constant [1 x i8] zeroinitializer, align 1

; Function Attrs: nounwind uwtable
define internal ptr @nullable_string(ptr noundef %0, i32 noundef %1) #0 {
  %3 = alloca ptr, align 8
  %4 = alloca ptr, align 8
  %5 = alloca i32, align 4
  store ptr %0, ptr %4, align 8
  store i32 %1, ptr %5, align 4
  %6 = load i32, ptr %5, align 4
  %7 = icmp eq i32 %6, 0
  br i1 %7, label %8, label %9

8:                                                ; preds = %2
  store ptr null, ptr %3, align 8
  br label %30

9:                                                ; preds = %2
  %10 = load i32, ptr %5, align 4
  %11 = icmp eq i32 %10, 2
  br i1 %11, label %12, label %26

12:                                               ; preds = %9
  %13 = load ptr, ptr %4, align 8
  %14 = getelementptr inbounds i8, ptr %13, i64 0
  %15 = load i8, ptr %14, align 1
  %16 = sext i8 %15 to i32
  %17 = icmp eq i32 %16, 34
  br i1 %17, label %18, label %26

18:                                               ; preds = %12
  %19 = load ptr, ptr %4, align 8
  %20 = getelementptr inbounds i8, ptr %19, i64 1
  %21 = load i8, ptr %20, align 1
  %22 = sext i8 %21 to i32
  %23 = icmp eq i32 %22, 34
  br i1 %23, label %24, label %26

24:                                               ; preds = %18
  %25 = call ptr @pstrdup(ptr noundef @.str.326)
  store ptr %25, ptr %3, align 8
  br label %30

26:                                               ; preds = %18, %12, %9
  %27 = load ptr, ptr %4, align 8
  %28 = load i32, ptr %5, align 4
  %29 = call ptr @debackslash(ptr noundef %27, i32 noundef %28)
  store ptr %29, ptr %3, align 8
  br label %30

30:                                               ; preds = %26, %24, %8
  %31 = load ptr, ptr %3, align 8
  ret ptr %31
}

; Function Attrs: inlinehint nounwind uwtable
define internal ptr @newNode(i64 noundef %0, i32 noundef %1) #7 {
  %3 = alloca i64, align 8
  %4 = alloca i32, align 4
  %5 = alloca ptr, align 8
  store i64 %0, ptr %3, align 8
  store i32 %1, ptr %4, align 4
  call void @llvm.lifetime.start.p0(i64 8, ptr %5) #9
  %6 = load i64, ptr %3, align 8
  %7 = call ptr @palloc0(i64 noundef %6)
  store ptr %7, ptr %5, align 8
  %8 = load i32, ptr %4, align 4
  %9 = load ptr, ptr %5, align 8
  %10 = getelementptr inbounds nuw %struct.Node, ptr %9, i32 0, i32 0
  store i32 %8, ptr %10, align 4
  %11 = load ptr, ptr %5, align 8
  call void @llvm.lifetime.end.p0(i64 8, ptr %5) #9
  ret ptr %11
}

; Function Attrs: nounwind uwtable
define internal ptr @_readAlterFdwStmt() #0 {
  %1 = alloca ptr, align 8
  %2 = alloca ptr, align 8
  %3 = alloca i32, align 4
  call void @llvm.lifetime.start.p0(i64 8, ptr %1) #9
  %4 = call ptr @newNode(i64 noundef 32, i32 noundef 169)
  store ptr %4, ptr %1, align 8
  call void @llvm.lifetime.start.p0(i64 8, ptr %2) #9
  call void @llvm.lifetime.start.p0(i64 4, ptr %3) #9
  %5 = call ptr @pg_strtok(ptr noundef %3)
  store ptr %5, ptr %2, align 8
  %6 = call ptr @pg_strtok(ptr noundef %3)
  store ptr %6, ptr %2, align 8
  %7 = load ptr, ptr %2, align 8
  %8 = load i32, ptr %3, align 4
  %9 = call ptr @nullable_string(ptr noundef %7, i32 noundef %8)
  %10 = load ptr, ptr %1, align 8
  %11 = getelementptr inbounds nuw %struct.AlterFdwStmt, ptr %10, i32 0, i32 1
  store ptr %9, ptr %11, align 8
  %12 = call ptr @pg_strtok(ptr noundef %3)
  store ptr %12, ptr %2, align 8
  %13 = call ptr @nodeRead(ptr noundef null, i32 noundef 0)
  %14 = load ptr, ptr %1, align 8
  %15 = getelementptr inbounds nuw %struct.AlterFdwStmt, ptr %14, i32 0, i32 2
  store ptr %13, ptr %15, align 8
  %16 = call ptr @pg_strtok(ptr noundef %3)
  store ptr %16, ptr %2, align 8
  %17 = call ptr @nodeRead(ptr noundef null, i32 noundef 0)
  %18 = load ptr, ptr %1, align 8
  %19 = getelementptr inbounds nuw %struct.AlterFdwStmt, ptr %18, i32 0, i32 3
  store ptr %17, ptr %19, align 8
  %20 = load ptr, ptr %1, align 8
  call void @llvm.lifetime.end.p0(i64 4, ptr %3) #9
  call void @llvm.lifetime.end.p0(i64 8, ptr %2) #9
  call void @llvm.lifetime.end.p0(i64 8, ptr %1) #9
  ret ptr %20
}